Certificate:
    Data:
        Version: 3 (0x2)
        Serial Number: 749590 (0xb7016)
    Signature Algorithm: sha256WithRSAEncryption
        Issuer: C=US, ST=California, L=Sunnyvale, O=Fortinet, OU=Certificate Authority, CN=fortinet-subca2001/emailAddress=support@fortinet.com
        Validity
            Not Before: Dec 31 09:22:25 2019 GMT
            Not After : Jan 19 03:14:07 2056 GMT
        Subject: C=US, ST=California, L=Sunnyvale, O=Fortinet, OU=FortiGate, CN=FG10E0TB19901249/emailAddress=support@fortinet.com
        Subject Public Key Info:
            Public Key Algorithm: rsaEncryption
                Public-Key: (2048 bit)
                Modulus:
                    00:b9:fd:b4:f5:8b:b1:43:e0:9e:e9:58:02:fc:2b:
                    f9:32:d9:0f:0a:ca:77:c2:d5:16:59:0a:b4:69:87:
                    68:07:ed:09:4d:4a:ba:88:d9:8b:2d:c7:60:7d:09:
                    2a:9c:cf:6e:c6:ef:d6:51:e3:f7:b3:c5:2a:97:df:
                    2f:fd:54:44:d0:94:a8:e3:04:8f:85:c3:5f:4e:7f:
                    20:49:77:d1:c4:f6:15:de:8c:1d:d8:8b:2c:dd:73:
                    6a:e3:cf:b9:e7:a0:b0:40:78:b3:1c:d8:17:1b:9b:
                    83:7b:0c:e3:3b:d5:4e:ca:06:a9:28:45:be:56:83:
                    e2:bd:d3:51:d6:9e:86:e8:aa:5d:5c:18:58:21:d0:
                    01:55:87:4b:9a:9a:9b:36:75:e9:36:45:f5:8c:0d:
                    e5:30:fe:a7:73:02:d5:2d:3e:10:af:1f:2e:10:9d:
                    2f:66:89:42:40:15:e1:ca:e5:45:d6:c6:74:45:ce:
                    75:8f:0d:bf:38:f6:a4:7e:54:90:f6:bb:f3:ff:2d:
                    7c:6e:05:0a:9b:73:56:bb:33:04:22:2b:1d:7a:e6:
                    29:d6:c8:81:62:4b:4a:97:fe:64:e8:69:07:82:47:
                    c7:02:05:40:20:f3:55:5e:c2:85:ba:41:68:ab:19:
                    32:0f:d6:6b:d3:6f:ef:5e:43:90:ab:32:df:d6:04:
                    96:4f
                Exponent: 65537 (0x10001)
        X509v3 extensions:
            X509v3 Subject Key Identifier: 
                39:C1:CD:B4:DB:F7:6B:B6:16:D6:93:8A:30:77:8B:04:57:F1:ED:B2
            X509v3 Authority Key Identifier: 
                keyid:98:2B:25:3C:30:CA:2C:2B:56:E7:DB:FC:59:33:B3:DC:3D:5B:6A:D7
                DirName:/C=US/ST=California/L=Sunnyvale/O=Fortinet/OU=Certificate Authority/CN=fortinet-ca2/emailAddress=support@fortinet.com
                serial:20:01

            X509v3 Basic Constraints: critical
                CA:FALSE
            X509v3 Key Usage: critical
                Digital Signature
    Signature Algorithm: sha256WithRSAEncryption
         9b:1e:62:7d:75:cb:8b:d2:e4:aa:ef:00:8a:bd:26:11:c8:63:
         6c:db:5c:e2:d0:5f:db:88:36:94:a3:e9:a6:28:40:e1:dc:f9:
         98:78:72:52:69:bf:cc:a6:ff:0b:1a:b8:38:bf:5f:fa:2f:fc:
         cb:5c:9c:5d:84:dc:9e:66:39:13:5d:a8:55:c6:48:e7:c0:a4:
         46:21:07:86:71:05:a4:5f:7d:ff:37:33:6b:e3:9a:d0:f5:25:
         6e:47:06:20:c4:1b:f1:55:65:3e:21:ee:43:4d:bb:dc:34:d9:
         11:09:b2:38:cb:41:f7:cb:cc:7e:9b:87:1f:67:3f:78:66:c6:
         b6:83:1d:4f:f6:c2:5b:d1:2f:4c:3c:37:cd:0d:93:c6:f6:89:
         5d:82:b0:d0:e4:e0:cf:6d:8a:b1:1e:cb:4c:fe:5f:cc:34:12:
         08:55:ae:90:88:db:fe:24:4e:22:b8:e5:70:1f:c8:65:1b:7f:
         0e:16:32:49:12:25:3b:87:22:a2:92:25:02:23:29:a2:9e:62:
         78:87:85:6b:95:9e:14:49:fa:2d:74:c7:66:14:a8:51:36:95:
         1f:2a:43:ae:d2:1f:dc:82:3d:03:82:7b:f7:bc:4b:9f:17:c9:
         2d:cc:8a:2b:40:f5:74:2c:30:3d:04:5f:2a:82:a8:5e:d2:4d:
         71:4d:c9:2d
-----BEGIN CERTIFICATE-----
MIIE4jCCA8qgAwIBAgIDC3AWMA0GCSqGSIb3DQEBCwUAMIGrMQswCQYDVQQGEwJV
UzETMBEGA1UECBMKQ2FsaWZvcm5pYTESMBAGA1UEBxMJU3Vubnl2YWxlMREwDwYD
VQQKEwhGb3J0aW5ldDEeMBwGA1UECxMVQ2VydGlmaWNhdGUgQXV0aG9yaXR5MRsw
GQYDVQQDExJmb3J0aW5ldC1zdWJjYTIwMDExIzAhBgkqhkiG9w0BCQEWFHN1cHBv
cnRAZm9ydGluZXQuY29tMCAXDTE5MTIzMTA5MjIyNVoYDzIwNTYwMTE5MDMxNDA3
WjCBnTELMAkGA1UEBhMCVVMxEzARBgNVBAgTCkNhbGlmb3JuaWExEjAQBgNVBAcT
CVN1bm55dmFsZTERMA8GA1UEChMIRm9ydGluZXQxEjAQBgNVBAsTCUZvcnRpR2F0
ZTEZMBcGA1UEAxMQRkcxMEUwVEIxOTkwMTI0OTEjMCEGCSqGSIb3DQEJARYUc3Vw
cG9ydEBmb3J0aW5ldC5jb20wggEiMA0GCSqGSIb3DQEBAQUAA4IBDwAwggEKAoIB
AQC5/bT1i7FD4J7pWAL8K/ky2Q8KynfC1RZZCrRph2gH7QlNSrqI2Ystx2B9CSqc
z27G79ZR4/ezxSqX3y/9VETQlKjjBI+Fw19OfyBJd9HE9hXejB3Yiyzdc2rjz7nn
oLBAeLMc2Bcbm4N7DOM71U7KBqkoRb5Wg+K901HWnoboql1cGFgh0AFVh0uamps2
dek2RfWMDeUw/qdzAtUtPhCvHy4QnS9miUJAFeHK5UXWxnRFznWPDb849qR+VJD2
u/P/LXxuBQqbc1a7MwQiKx165inWyIFiS0qX/mToaQeCR8cCBUAg81VewoW6QWir
GTIP1mvTb+9eQ5CrMt/WBJZPAgMBAAGjggEXMIIBEzAdBgNVHQ4EFgQUOcHNtNv3
a7YW1pOKMHeLBFfx7bIwgdMGA1UdIwSByzCByIAUmCslPDDKLCtW59v8WTOz3D1b
atehgaukgagwgaUxCzAJBgNVBAYTAlVTMRMwEQYDVQQIEwpDYWxpZm9ybmlhMRIw
EAYDVQQHEwlTdW5ueXZhbGUxETAPBgNVBAoTCEZvcnRpbmV0MR4wHAYDVQQLExVD
ZXJ0aWZpY2F0ZSBBdXRob3JpdHkxFTATBgNVBAMTDGZvcnRpbmV0LWNhMjEjMCEG
CSqGSIb3DQEJARYUc3VwcG9ydEBmb3J0aW5ldC5jb22CAiABMAwGA1UdEwEB/wQC
MAAwDgYDVR0PAQH/BAQDAgeAMA0GCSqGSIb3DQEBCwUAA4IBAQCbHmJ9dcuL0uSq
7wCKvSYRyGNs21zi0F/biDaUo+mmKEDh3PmYeHJSab/Mpv8LGrg4v1/6L/zLXJxd
hNyeZjkTXahVxkjnwKRGIQeGcQWkX33/NzNr45rQ9SVuRwYgxBvxVWU+Ie5DTbvc
NNkRCbI4y0H3y8x+m4cfZz94Zsa2gx1P9sJb0S9MPDfNDZPG9oldgrDQ5ODPbYqx
HstM/l/MNBIIVa6QiNv+JE4iuOVwH8hlG38OFjJJEiU7hyKikiUCIyminmJ4h4Vr
lZ4USfotdMdmFKhRNpUfKkOu0h/cgj0Dgnv3vEufF8ktzIorQPV0LDA9BF8qgqhe
0k1xTckt
-----END CERTIFICATE-----

